target datalayout = "e-m:e-p270:32:32-p271:32:32-p272:64:64-i64:64-i128:128-f80:128-n8:16:32:64-S128"
target triple = "x86_64-pc-linux-gnu"

%struct._lv_obj_t = type { ptr, ptr, ptr, ptr, ptr, %struct.lv_area_t, i32, i16, i16 }
%struct.lv_area_t = type { i32, i32, i32, i32 }
%struct._lv_obj_style_t = type { ptr, i32 }
%struct.lv_event_list_t = type { %struct._lv_array_t, i8 }
%struct._lv_array_t = type { ptr, i32, i32, i32, i8 }
%struct._lv_obj_spec_attr_t = type { ptr, ptr, %struct.lv_event_list_t, %struct.lv_point_t, i32, i32, i16, i16 }
%struct.lv_point_t = type { i32, i32 }

; Function Attrs: nounwind uwtable
define internal void @full_cache_refresh(ptr noundef %0, i32 noundef %1) #0 {
  %3 = alloca ptr, align 8
  %4 = alloca i32, align 4
  store ptr %0, ptr %3, align 8, !tbaa !30
  store i32 %1, ptr %4, align 4, !tbaa !32
  ret void
}

; Function Attrs: inlinehint nounwind uwtable
define internal i32 @lv_obj_style_get_selector_part(i32 noundef %0) #3 {
  %2 = alloca i32, align 4
  store i32 %0, ptr %2, align 4, !tbaa !32
  %3 = load i32, ptr %2, align 4, !tbaa !32
  %4 = and i32 %3, 16711680
  ret i32 %4
}

; Function Attrs: nounwind uwtable
define internal void @report_style_change_core(ptr noundef %0, ptr noundef %1) #0 {
  %3 = alloca ptr, align 8
  %4 = alloca ptr, align 8
  %5 = alloca i32, align 4
  %6 = alloca i32, align 4
  store ptr %0, ptr %3, align 8, !tbaa !31
  store ptr %1, ptr %4, align 8, !tbaa !30
  call void @llvm.lifetime.start.p0(i64 4, ptr %5) #6
  store i32 0, ptr %5, align 4, !tbaa !32
  br label %7

7:                                                ; preds = %44, %2
  %8 = load i32, ptr %5, align 4, !tbaa !32
  %9 = load ptr, ptr %4, align 8, !tbaa !30
  %10 = getelementptr inbounds nuw %struct._lv_obj_t, ptr %9, i32 0, i32 8
  %11 = load i16, ptr %10, align 2
  %12 = lshr i16 %11, 4
  %13 = and i16 %12, 63
  %14 = zext i16 %13 to i32
  %15 = icmp ult i32 %8, %14
  br i1 %15, label %16, label %47

16:                                               ; preds = %7
  %17 = load ptr, ptr %3, align 8, !tbaa !31
  %18 = icmp eq ptr %17, null
  br i1 %18, label %30, label %19

19:                                               ; preds = %16
  %20 = load ptr, ptr %4, align 8, !tbaa !30
  %21 = getelementptr inbounds nuw %struct._lv_obj_t, ptr %20, i32 0, i32 3
  %22 = load ptr, ptr %21, align 8, !tbaa !33
  %23 = load i32, ptr %5, align 4, !tbaa !32
  %24 = zext i32 %23 to i64
  %25 = getelementptr inbounds nuw %struct._lv_obj_style_t, ptr %22, i64 %24
  %26 = getelementptr inbounds nuw %struct._lv_obj_style_t, ptr %25, i32 0, i32 0
  %27 = load ptr, ptr %26, align 8, !tbaa !45
  %28 = load ptr, ptr %3, align 8, !tbaa !31
  %29 = icmp eq ptr %27, %28
  br i1 %29, label %30, label %43

30:                                               ; preds = %19, %16
  %31 = load ptr, ptr %4, align 8, !tbaa !30
  %32 = load ptr, ptr %4, align 8, !tbaa !30
  %33 = getelementptr inbounds nuw %struct._lv_obj_t, ptr %32, i32 0, i32 3
  %34 = load ptr, ptr %33, align 8, !tbaa !33
  %35 = load i32, ptr %5, align 4, !tbaa !32
  %36 = zext i32 %35 to i64
  %37 = getelementptr inbounds nuw %struct._lv_obj_style_t, ptr %34, i64 %36
  %38 = getelementptr inbounds nuw %struct._lv_obj_style_t, ptr %37, i32 0, i32 1
  %39 = load i32, ptr %38, align 8
  %40 = and i32 %39, 16777215
  %41 = call i32 @lv_obj_style_get_selector_part(i32 noundef %40)
  call void @full_cache_refresh(ptr noundef %31, i32 noundef %41)
  %42 = load ptr, ptr %4, align 8, !tbaa !30
  call void @lv_obj_refresh_style(ptr noundef %42, i32 noundef 983040, i8 noundef zeroext -1)
  br label %47

43:                                               ; preds = %19
  br label %44

44:                                               ; preds = %43
  %45 = load i32, ptr %5, align 4, !tbaa !32
  %46 = add i32 %45, 1
  store i32 %46, ptr %5, align 4, !tbaa !32
  br label %7, !llvm.loop !84

47:                                               ; preds = %30, %7
  call void @llvm.lifetime.start.p0(i64 4, ptr %6) #6
  %48 = load ptr, ptr %4, align 8, !tbaa !30
  %49 = call i32 @lv_obj_get_child_count(ptr noundef %48)
  store i32 %49, ptr %6, align 4, !tbaa !32
  store i32 0, ptr %5, align 4, !tbaa !32
  br label %50

50:                                               ; preds = %65, %47
  %51 = load i32, ptr %5, align 4, !tbaa !32
  %52 = load i32, ptr %6, align 4, !tbaa !32
  %53 = icmp ult i32 %51, %52
  br i1 %53, label %54, label %68

54:                                               ; preds = %50
  %55 = load ptr, ptr %3, align 8, !tbaa !31
  %56 = load ptr, ptr %4, align 8, !tbaa !30
  %57 = getelementptr inbounds nuw %struct._lv_obj_t, ptr %56, i32 0, i32 2
  %58 = load ptr, ptr %57, align 8, !tbaa !85
  %59 = getelementptr inbounds nuw %struct._lv_obj_spec_attr_t, ptr %58, i32 0, i32 0
  %60 = load ptr, ptr %59, align 8, !tbaa !86
  %61 = load i32, ptr %5, align 4, !tbaa !32
  %62 = zext i32 %61 to i64
  %63 = getelementptr inbounds nuw ptr, ptr %60, i64 %62
  %64 = load ptr, ptr %63, align 8, !tbaa !30
  call void @report_style_change_core(ptr noundef %55, ptr noundef %64)
  br label %65

65:                                               ; preds = %54
  %66 = load i32, ptr %5, align 4, !tbaa !32
  %67 = add i32 %66, 1
  store i32 %67, ptr %5, align 4, !tbaa !32
  br label %50, !llvm.loop !89

68:                                               ; preds = %50
  call void @llvm.lifetime.end.p0(i64 4, ptr %6) #6
  call void @llvm.lifetime.end.p0(i64 4, ptr %5) #6
  ret void
}