; Function Attrs: nounwind uwtable
define internal fastcc void @report_style_change_core(ptr noundef captures(address) %0, ptr noundef %1) unnamed_addr #0 {
  %3 = getelementptr inbounds nuw i8, ptr %1, i64 62
  %4 = load i16, ptr %3, align 2
  %5 = lshr i16 %4, 4
  %6 = and i16 %5, 63
  %.not = icmp eq i16 %6, 0
  br i1 %.not, label %.loopexit, label %.lr.ph

.lr.ph:                                           ; preds = %2
  %7 = icmp eq ptr %0, null
  br i1 %7, label %.split, label %.lr.ph.split

.lr.ph.split:                                     ; preds = %.lr.ph
  %8 = getelementptr inbounds nuw i8, ptr %1, i64 24
  %9 = load ptr, ptr %8, align 8, !tbaa !38
  %wide.trip.count = zext nneg i16 %6 to i64
  br label %11

10:                                               ; preds = %11
  %indvars.iv.next = add nuw nsw i64 %indvars.iv, 1
  %exitcond.not = icmp eq i64 %indvars.iv.next, %wide.trip.count
  br i1 %exitcond.not, label %.loopexit, label %11, !llvm.loop !86

11:                                               ; preds = %.lr.ph.split, %10
  %indvars.iv = phi i64 [ 0, %.lr.ph.split ], [ %indvars.iv.next, %10 ]
  %12 = getelementptr inbounds nuw %struct._lv_obj_style_t, ptr %9, i64 %indvars.iv
  %13 = load ptr, ptr %12, align 8, !tbaa !49
  %14 = icmp eq ptr %13, %0
  br i1 %14, label %.split, label %10

.split:                                           ; preds = %11, %.lr.ph
  tail call void @lv_obj_refresh_style(ptr noundef nonnull %1, i32 noundef 983040, i8 noundef zeroext -1)
  br label %.loopexit

.loopexit:                                        ; preds = %10, %2, %.split
  %15 = tail call i32 @lv_obj_get_child_count(ptr noundef nonnull %1) #9
  %.not21 = icmp eq i32 %15, 0
  br i1 %.not21, label %._crit_edge, label %.lr.ph20

.lr.ph20:                                         ; preds = %.loopexit
  %16 = getelementptr inbounds nuw i8, ptr %1, i64 16
  %wide.trip.count26 = zext i32 %15 to i64
  br label %17

17:                                               ; preds = %.lr.ph20, %17
  %indvars.iv23 = phi i64 [ 0, %.lr.ph20 ], [ %indvars.iv.next24, %17 ]
  %18 = load ptr, ptr %16, align 8, !tbaa !87
  %19 = load ptr, ptr %18, align 8, !tbaa !88
  %20 = getelementptr inbounds nuw ptr, ptr %19, i64 %indvars.iv23
  %21 = load ptr, ptr %20, align 8, !tbaa !83
  tail call fastcc void @report_style_change_core(ptr noundef %0, ptr noundef %21)
  %indvars.iv.next24 = add nuw nsw i64 %indvars.iv23, 1
  %exitcond27.not = icmp eq i64 %indvars.iv.next24, %wide.trip.count26
  br i1 %exitcond27.not, label %._crit_edge, label %17, !llvm.loop !91

._crit_edge:                                      ; preds = %17, %.loopexit
  ret void
}